; Function Attrs: mustprogress uwtable
define dso_local void @_ZN3ozz2io6ExternIDv4_fE4LoadERNS0_8IArchiveEPS2_mj(ptr noundef nonnull readonly align 8 captures(none) dereferenceable(9) %0, ptr noundef %1, i64 noundef %2, i32 noundef %3) local_unnamed_addr #0 align 2 {
  %5 = shl i64 %2, 4
  %6 = getelementptr inbounds nuw i8, ptr %0, i64 8
  %7 = load ptr, ptr %0, align 8, !tbaa !20
  %8 = load ptr, ptr %7, align 8, !tbaa !16
  %9 = getelementptr inbounds nuw i8, ptr %8, i64 8
  %10 = load ptr, ptr %9, align 8
  %11 = tail call noundef i64 %10(ptr noundef nonnull align 8 dereferenceable(8) %7, ptr noundef %1, i64 noundef %5)
  %12 = load i8, ptr %6, align 8, !tbaa !22, !range !11, !noundef !12
  %13 = trunc nuw i8 %12 to i1
  %.not9.i.i = icmp ne i64 %5, 0
  %or.cond.not = and i1 %.not9.i.i, %13
  br i1 %or.cond.not, label %.lr.ph.i.i, label %_ZN3ozz2io8IArchiversIKNS0_8internal5ArrayIfEEEEvRT_.exit

.lr.ph.i.i:                                       ; preds = %4, %.lr.ph.i.i
  %.0.i6.i.i = phi i64 [ %25, %.lr.ph.i.i ], [ 0, %4 ]
  %14 = getelementptr inbounds nuw i8, ptr %1, i64 %.0.i6.i.i
  %15 = or disjoint i64 %.0.i6.i.i, 3
  %16 = getelementptr inbounds nuw i8, ptr %1, i64 %15
  %17 = load i8, ptr %14, align 1, !tbaa !23
  %18 = load i8, ptr %16, align 1, !tbaa !23
  store i8 %17, ptr %16, align 1, !tbaa !23
  store i8 %18, ptr %14, align 1, !tbaa !23
  %19 = or disjoint i64 %.0.i6.i.i, 1
  %20 = getelementptr inbounds nuw i8, ptr %1, i64 %19
  %21 = or disjoint i64 %.0.i6.i.i, 2
  %22 = getelementptr inbounds nuw i8, ptr %1, i64 %21
  %23 = load i8, ptr %20, align 1, !tbaa !23
  %24 = load i8, ptr %22, align 1, !tbaa !23
  store i8 %23, ptr %22, align 1, !tbaa !23
  store i8 %24, ptr %20, align 1, !tbaa !23
  %25 = add nuw i64 %.0.i6.i.i, 4
  %26 = icmp ult i64 %25, %5
  br i1 %26, label %.lr.ph.i.i, label %_ZN3ozz2io8IArchiversIKNS0_8internal5ArrayIfEEEEvRT_.exit, !llvm.loop !24

_ZN3ozz2io8IArchiversIKNS0_8internal5ArrayIfEEEEvRT_.exit: ; preds = %.lr.ph.i.i, %4
  ret void
}